(lp0
(lp1
(lp2
(lp3
F57.7190055847168
aF333.855712890625
aaa(lp4
(lp5
F60.312774658203125
aF250.20977783203125
aaa(lp6
(lp7
F64.01969909667969
aF169.84645080566406
aaa(lp8
(lp9
F68.08180236816406
aF92.57386016845703
aaa(lp10
(lp11
F97.6729965209961
aF292.11273193359375
aaa(lp12
(lp13
F101.67778778076172
aF209.43247985839844
aaa(lp14
(lp15
F105.73575592041016
aF131.1304168701172
aaa(lp16
(lp17
F105.93108367919922
aF52.603782653808594
aaa(lp18
(lp19
F136.82557678222656
aF335.48980712890625
aaa(lp20
(lp21
F140.4323272705078
aF250.05470275878906
aaa(lp22
(lp23
F143.93524169921875
aF170.24562072753906
aaa(lp24
(lp25
F145.39508056640625
aF92.05303192138672
aaa(lp26
(lp27
F180.12478637695312
aF292.01007080078125
aaa(lp28
(lp29
F182.55645751953125
aF209.82032775878906
aaa(lp30
(lp31
F184.04379272460938
aF131.19822692871094
aaa(lp32
(lp33
F182.74642944335938
aF50.66012954711914
aaa(lp34
(lp35
F220.81903076171875
aF335.2016296386719
aaa(lp36
(lp37
F222.0121612548828
aF250.28453063964844
aaa(lp38
(lp39
F222.9107666015625
aF170.38026428222656
aaa(lp40
(lp41
F222.49935913085938
aF90.47283935546875
aaa(lp42
(lp43
F262.3728332519531
aF291.86480712890625
aaa(lp44
(lp45
F262.3001708984375
aF210.04779052734375
aaa(lp46
(lp47
F262.09161376953125
aF130.1322021484375
aaa(lp48
(lp49
F261.4192810058594
aF48.35800552368164
aaa(lp50
(lp51
F303.6685485839844
aF334.6260681152344
aaa(lp52
(lp53
F302.4271240234375
aF250.4500732421875
aaa(lp54
(lp55
F302.02764892578125
aF169.92041015625
aaa(lp56
(lp57
F301.6978759765625
aF88.59383392333984
aaa(lp58
(lp59
F343.3350830078125
aF291.8185119628906
aaa(lp60
(lp61
F342.4471435546875
aF210.0437774658203
aaa(lp62
(lp63
F342.26214599609375
aF128.8412322998047
aaa(lp64
(lp65
F342.45770263671875
aF45.79971694946289
aaa(lp66
(lp67
F385.32098388671875
aF334.3799743652344
aaa(lp68
(lp69
F383.4579772949219
aF250.73985290527344
aaa(lp70
(lp71
F383.277099609375
aF169.30850219726562
aaa(lp72
(lp73
F383.519287109375
aF86.61060333251953
aaa(lp74
(lp75
F425.40338134765625
aF292.4601745605469
aaa(lp76
(lp77
F425.1077575683594
aF210.10055541992188
aaa(lp78
(lp79
F425.1685791015625
aF127.4810562133789
aaa(lp80
(lp81
F425.8402099609375
aF43.39497756958008
aaa(lp82
(lp83
F467.72906494140625
aF334.7963562011719
aaa(lp84
(lp85
F467.6941223144531
aF251.55819702148438
aaa(lp86
(lp87
F467.8427734375
aF168.54383850097656
aaa(lp88
(lp89
F467.6645812988281
aF84.73568725585938
aaaa(lp90
(lp91
(lp92
F145.75123596191406
aF295.19439697265625
aaa(lp93
(lp94
F148.798095703125
aF236.30258178710938
aaa(lp95
(lp96
F152.41856384277344
aF178.62924194335938
aaa(lp97
(lp98
F156.330810546875
aF122.17015838623047
aaa(lp99
(lp100
F166.06532287597656
aF268.4493713378906
aaa(lp101
(lp102
F170.82969665527344
aF207.8377227783203
aaa(lp103
(lp104
F175.95364379882812
aF148.97647094726562
aaa(lp105
(lp106
F175.8531494140625
aF89.27241516113281
aaa(lp107
(lp108
F185.6582794189453
aF303.7475280761719
aaa(lp109
(lp110
F191.23533630371094
aF239.6522216796875
aaa(lp111
(lp112
F196.90843200683594
aF178.05569458007812
aaa(lp113
(lp114
F199.2783660888672
aF116.65186309814453
aaa(lp115
(lp116
F213.71975708007812
aF274.63128662109375
aaa(lp117
(lp118
F219.62242126464844
aF209.49734497070312
aaa(lp119
(lp120
F222.8765106201172
aF145.8069610595703
aaa(lp121
(lp122
F220.33309936523438
aF80.41777038574219
aaa(lp123
(lp124
F238.3013916015625
aF313.0305480957031
aaa(lp125
(lp126
F244.44039916992188
aF243.84194946289062
aaa(lp127
(lp128
F248.2467803955078
aF177.1560821533203
aaa(lp129
(lp130
F247.19224548339844
aF109.6996078491211
aaa(lp131
(lp132
F271.5837097167969
aF281.7198791503906
aaa(lp133
(lp134
F275.71533203125
aF211.25987243652344
aaa(lp135
(lp136
F275.7020263671875
aF141.32733154296875
aaa(lp137
(lp138
F272.96148681640625
aF69.5416030883789
aaa(lp139
(lp140
F301.5758972167969
aF323.669189453125
aaa(lp141
(lp142
F305.85986328125
aF248.6588592529297
aaa(lp143
(lp144
F306.5567932128906
aF175.67108154296875
aaa(lp145
(lp146
F304.7176513671875
aF101.29125213623047
aaa(lp147
(lp148
F339.0693664550781
aF290.1654052734375
aaa(lp149
(lp150
F340.2135009765625
aF213.16603088378906
aaa(lp151
(lp152
F339.1314392089844
aF135.9032745361328
aaa(lp153
(lp154
F337.378662109375
aF55.993896484375
aaa(lp155
(lp156
F376.2852478027344
aF336.76727294921875
aaa(lp157
(lp158
F377.49713134765625
aF254.6280975341797
aaa(lp159
(lp160
F376.8698425292969
aF173.787353515625
aaa(lp161
(lp162
F376.12255859375
aF90.74159240722656
aaa(lp163
(lp164
F419.34515380859375
aF301.26275634765625
aaa(lp165
(lp166
F418.8977966308594
aF215.74200439453125
aaa(lp167
(lp168
F418.7421569824219
aF128.95262145996094
aaa(lp169
(lp170
F418.5629577636719
aF39.149051666259766
aaa(lp171
(lp172
F466.021484375
aF353.482421875
aaa(lp173
(lp174
F466.26416015625
aF262.8665466308594
aaa(lp175
(lp176
F466.2451171875
aF171.329833984375
aaa(lp177
(lp178
F466.8163146972656
aF77.34481048583984
aaaa(lp179
(lp180
(lp181
F49.56155014038086
aF303.43798828125
aaa(lp182
(lp183
F75.58342742919922
aF233.9726104736328
aaa(lp184
(lp185
F96.8861083984375
aF179.93565368652344
aaa(lp186
(lp187
F114.64089965820312
aF136.44728088378906
aaa(lp188
(lp189
F99.6624984741211
aF263.14202880859375
aaa(lp190
(lp191
F120.37796020507812
aF203.35369873046875
aaa(lp192
(lp193
F137.18539428710938
aF156.2773895263672
aaa(lp194
(lp195
F148.22406005859375
aF112.54922485351562
aaa(lp196
(lp197
F127.82048034667969
aF297.77789306640625
aaa(lp198
(lp199
F147.12637329101562
aF230.11964416503906
aaa(lp200
(lp201
F162.1507568359375
aF178.2943878173828
aaa(lp202
(lp203
F173.01858520507812
aF132.54922485351562
aaa(lp204
(lp205
F177.6093292236328
aF261.1263732910156
aaa(lp206
(lp207
F190.11056518554688
aF202.66107177734375
aaa(lp208
(lp209
F199.2080841064453
aF153.36192321777344
aaa(lp210
(lp211
F204.5177764892578
aF106.28273010253906
aaa(lp212
(lp213
F212.6697235107422
aF296.8938293457031
aaa(lp214
(lp215
F221.6938018798828
aF230.22903442382812
aaa(lp216
(lp217
F228.2021484375
aF176.0380096435547
aaa(lp218
(lp219
F232.00811767578125
aF126.1519546508789
aaa(lp220
(lp221
F257.7279357910156
aF261.97747802734375
aaa(lp222
(lp223
F260.6443786621094
aF201.21731567382812
aaa(lp224
(lp225
F262.1435852050781
aF147.53173828125
aaa(lp226
(lp227
F262.68988037109375
aF99.32056427001953
aaa(lp228
(lp229
F299.35650634765625
aF298.6805114746094
aaa(lp230
(lp231
F297.3590087890625
aF229.62864685058594
aaa(lp232
(lp233
F295.5456237792969
aF170.98927307128906
aaa(lp234
(lp235
F293.6393737792969
aF119.16995239257812
aaa(lp236
(lp237
F339.3319091796875
aF262.25115966796875
aaa(lp238
(lp239
F332.979736328125
aF196.95066833496094
aaa(lp240
(lp241
F327.8299560546875
aF140.81271362304688
aaa(lp242
(lp243
F323.4450988769531
aF92.23042297363281
aaa(lp244
(lp245
F388.1840515136719
aF300.3063049316406
aaa(lp246
(lp247
F375.47930908203125
aF226.39146423339844
aaa(lp248
(lp249
F366.0190734863281
aF164.60418701171875
aaa(lp250
(lp251
F358.2960205078125
aF112.30745697021484
aaa(lp252
(lp253
F424.5727844238281
aF260.376953125
aaa(lp254
(lp255
F409.36529541015625
aF191.0441436767578
aaa(lp256
(lp257
F397.2229919433594
aF134.06781005859375
aaa(lp258
(lp259
F387.3689880371094
aF85.29801940917969
aaa(lp260
(lp261
F481.5058288574219
aF299.9305114746094
aaa(lp262
(lp263
F459.04815673828125
aF221.1442108154297
aaa(lp264
(lp265
F441.2925720214844
aF157.6170654296875
aaa(lp266
(lp267
F426.6506042480469
aF105.32112884521484
aaaa(lp268
(lp269
(lp270
F111.31695556640625
aF329.07452392578125
aaa(lp271
(lp272
F98.42252349853516
aF275.6605529785156
aaa(lp273
(lp274
F84.51028442382812
aF214.24497985839844
aaa(lp275
(lp276
F68.50959014892578
aF143.50921630859375
aaa(lp277
(lp278
F134.75286865234375
aF307.1371154785156
aaa(lp279
(lp280
F124.45002746582031
aF247.8576202392578
aaa(lp281
(lp282
F112.93230438232422
aF180.58103942871094
aaa(lp283
(lp284
F94.42339324951172
aF105.4345474243164
aaa(lp285
(lp286
F170.1536407470703
aF337.0415954589844
aaa(lp287
(lp288
F162.75027465820312
aF279.8674011230469
aaa(lp289
(lp290
F154.47427368164062
aF215.81639099121094
aaa(lp291
(lp292
F142.49237060546875
aF144.75489807128906
aaa(lp293
(lp294
F199.4715118408203
aF310.5740661621094
aaa(lp295
(lp296
F193.74038696289062
aF249.29983520507812
aaa(lp297
(lp298
F185.88059997558594
aF182.28985595703125
aaa(lp299
(lp300
F172.39015197753906
aF107.25465393066406
aaa(lp301
(lp302
F234.6578369140625
aF340.28814697265625
aaa(lp303
(lp304
F231.20423889160156
aF281.2885437011719
aaa(lp305
(lp306
F226.55101013183594
aF217.75953674316406
aaa(lp307
(lp308
F218.6410369873047
aF147.69825744628906
aaa(lp309
(lp310
F267.0164794921875
aF312.1086120605469
aaa(lp311
(lp312
F265.0014343261719
aF251.44252014160156
aaa(lp313
(lp314
F261.4358825683594
aF185.9877166748047
aaa(lp315
(lp316
F255.77508544921875
aF109.05548858642578
aaa(lp317
(lp318
F301.34375
aF341.7916259765625
aaa(lp319
(lp320
F301.5637512207031
aF283.5321044921875
aaa(lp321
(lp322
F301.5026550292969
aF222.07347106933594
aaa(lp323
(lp324
F300.70849609375
aF150.9788055419922
aaa(lp325
(lp326
F336.4813232421875
aF314.4552001953125
aaa(lp327
(lp328
F339.2987060546875
aF256.23040771484375
aaa(lp329
(lp330
F342.5606689453125
aF190.5629425048828
aaa(lp331
(lp332
F346.55975341796875
aF110.4398193359375
aaa(lp333
(lp334
F370.0448303222656
aF344.3040466308594
aaa(lp335
(lp336
F375.22406005859375
aF288.70501708984375
aaa(lp337
(lp338
F381.8516540527344
aF227.8258056640625
aaa(lp339
(lp340
F390.1694030761719
aF153.9078369140625
aaa(lp341
(lp342
F409.6153259277344
aF319.9484558105469
aaa(lp343
(lp344
F419.2467041015625
aF263.22039794921875
aaa(lp345
(lp346
F431.0945129394531
aF195.0034637451172
aaa(lp347
(lp348
F446.5572814941406
aF110.75353240966797
aaa(lp349
(lp350
F442.17523193359375
aF349.6540832519531
aaa(lp351
(lp352
F454.75103759765625
aF296.857177734375
aaa(lp353
(lp354
F469.8715515136719
aF234.2459259033203
aaa(lp355
(lp356
F488.4835205078125
aF156.3206787109375
aaaa(lp357
(lp358
(lp359
F136.60382080078125
aF276.7158203125
aaa(lp360
(lp361
F126.51178741455078
aF224.20150756835938
aaa(lp362
(lp363
F116.22119140625
aF165.9584197998047
aaa(lp364
(lp365
F105.00708770751953
aF101.5084228515625
aaa(lp366
(lp367
F152.71730041503906
aF256.9939880371094
aaa(lp368
(lp369
F144.7907257080078
aF199.2806396484375
aaa(lp370
(lp371
F136.5025634765625
aF135.82305908203125
aaa(lp372
(lp373
F120.95938110351562
aF65.81133270263672
aaa(lp374
(lp375
F179.93572998046875
aF290.0900573730469
aaa(lp376
(lp377
F173.93666076660156
aF232.88548278808594
aaa(lp378
(lp379
F167.81387329101562
aF170.54562377929688
aaa(lp380
(lp381
F157.2880096435547
aF102.32408905029297
aaa(lp382
(lp383
F203.6775360107422
aF267.00531005859375
aaa(lp384
(lp385
F199.1579132080078
aF205.41090393066406
aaa(lp386
(lp387
F191.6766815185547
aF138.98779296875
aaa(lp388
(lp389
F176.3129425048828
aF64.97233581542969
aaa(lp390
(lp391
F233.7794189453125
aF301.719970703125
aaa(lp392
(lp393
F230.90614318847656
aF240.7509002685547
aaa(lp394
(lp395
F225.8036346435547
aF175.67550659179688
aaa(lp396
(lp397
F214.91506958007812
aF104.24915313720703
aaa(lp398
(lp399
F263.0209655761719
aF276.6966857910156
aaa(lp400
(lp401
F260.02728271484375
aF212.66329956054688
aaa(lp402
(lp403
F252.7533416748047
aF143.56578063964844
aaa(lp404
(lp405
F241.1832733154297
aF63.81072998046875
aaa(lp406
(lp407
F295.5419616699219
aF313.2228088378906
aaa(lp408
(lp409
F294.603271484375
aF250.052978515625
aaa(lp410
(lp411
F290.4590759277344
aF183.01809692382812
aaa(lp412
(lp413
F283.09039306640625
aF106.49911499023438
aaa(lp414
(lp415
F329.4859619140625
aF288.106201171875
aaa(lp416
(lp417
F328.246826171875
aF222.7600860595703
aaa(lp418
(lp419
F324.739013671875
aF149.4102325439453
aaa(lp420
(lp421
F319.7308349609375
aF61.661346435546875
aaa(lp422
(lp423
F365.0635070800781
aF326.9583740234375
aaa(lp424
(lp425
F366.4074401855469
aF262.87823486328125
aaa(lp426
(lp427
F366.4169921875
aF192.5545196533203
aaa(lp428
(lp429
F366.1763000488281
aF108.60863494873047
aaa(lp430
(lp431
F405.2344055175781
aF303.8217468261719
aaa(lp432
(lp433
F408.5604248046875
aF236.19749450683594
aaa(lp434
(lp435
F412.6244201660156
aF155.9767608642578
aaa(lp436
(lp437
F417.75823974609375
aF57.98841857910156
aaa(lp438
(lp439
F444.5255126953125
aF345.3049621582031
aaa(lp440
(lp441
F451.47802734375
aF280.4883728027344
aaa(lp442
(lp443
F459.5229187011719
aF204.1659698486328
aaa(lp444
(lp445
F469.8717346191406
aF110.35974884033203
aaaa(lp446
(lp447
(lp448
F57.95180130004883
aF298.8291320800781
aaa(lp449
(lp450
F82.65507507324219
aF209.02334594726562
aaa(lp451
(lp452
F102.81791687011719
aF135.67938232421875
aaa(lp453
(lp454
F119.9900894165039
aF73.99061584472656
aaa(lp455
(lp456
F119.47537231445312
aF258.3712463378906
aaa(lp457
(lp458
F136.77833557128906
aF180.2344970703125
aaa(lp459
(lp460
F150.99493408203125
aF115.68299865722656
aaa(lp461
(lp462
F163.8413543701172
aF55.28101348876953
aaa(lp463
(lp464
F157.17323303222656
aF310.1192321777344
aaa(lp465
(lp466
F171.1698455810547
aF226.01768493652344
aaa(lp467
(lp468
F182.3140869140625
aF157.643310546875
aaa(lp469
(lp470
F193.1064453125
aF96.38004302978516
aaa(lp471
(lp472
F206.23416137695312
aF273.4437561035156
aaa(lp473
(lp474
F214.14073181152344
aF200.01673889160156
aaa(lp475
(lp476
F222.37539672851562
aF136.3885040283203
aaa(lp477
(lp478
F231.93199157714844
aF75.57554626464844
aaa(lp479
(lp480
F242.24923706054688
aF322.3660888671875
aaa(lp481
(lp482
F246.68890380859375
aF243.38941955566406
aaa(lp483
(lp484
F252.08447265625
aF176.47616577148438
aaa(lp485
(lp486
F259.6449279785156
aF114.38990020751953
aaa(lp487
(lp488
F279.98236083984375
aF288.0302734375
aaa(lp489
(lp490
F282.3404235839844
aF216.9995574951172
aaa(lp491
(lp492
F287.7271423339844
aF153.02134704589844
aaa(lp493
(lp494
F294.2001037597656
aF93.50489807128906
aaa(lp495
(lp496
F314.1719665527344
aF334.12213134765625
aaa(lp497
(lp498
F313.2135009765625
aF258.2444763183594
aaa(lp499
(lp500
F316.2190856933594
aF191.8007049560547
aaa(lp501
(lp502
F320.94384765625
aF130.67233276367188
aaa(lp503
(lp504
F344.8645935058594
aF300.6460266113281
aaa(lp505
(lp506
F345.28131103515625
aF230.8789825439453
aaa(lp507
(lp508
F348.15008544921875
aF167.9241943359375
aaa(lp509
(lp510
F351.5929870605469
aF110.08562469482422
aaa(lp511
(lp512
F377.5555419921875
aF344.4956970214844
aaa(lp513
(lp514
F374.8820495605469
aF270.6510009765625
aaa(lp515
(lp516
F375.8874206542969
aF205.3923797607422
aaa(lp517
(lp518
F377.36956787109375
aF145.9773712158203
aaa(lp519
(lp520
F405.4132385253906
aF311.569580078125
aaa(lp521
(lp522
F404.4256591796875
aF243.20870971679688
aaa(lp523
(lp524
F403.995361328125
aF181.9051513671875
aaa(lp525
(lp526
F404.5013122558594
aF125.74378967285156
aaa(lp527
(lp528
F436.41851806640625
aF353.4034729003906
aaa(lp529
(lp530
F433.7017822265625
aF281.77752685546875
aaa(lp531
(lp532
F431.7569885253906
aF217.99423217773438
aaa(lp533
(lp534
F429.70355224609375
aF160.2890167236328
aaaa(lp535
(lp536
(lp537
F137.0184326171875
aF308.7605285644531
aaa(lp538
(lp539
F145.18072509765625
aF248.97105407714844
aaa(lp540
(lp541
F153.26992797851562
aF195.09632873535156
aaa(lp542
(lp543
F160.99832153320312
aF146.05067443847656
aaa(lp544
(lp545
F162.96827697753906
aF276.8301086425781
aaa(lp546
(lp547
F171.4973602294922
aF218.9450225830078
aaa(lp548
(lp549
F179.64404296875
aF166.8649139404297
aaa(lp550
(lp551
F183.22230529785156
aF116.56948852539062
aaa(lp552
(lp553
F183.44451904296875
aF308.4627990722656
aaa(lp554
(lp555
F192.09193420410156
aF245.524169921875
aaa(lp556
(lp557
F200.0378875732422
aF189.8787384033203
aaa(lp558
(lp559
F204.90866088867188
aF137.35031127929688
aaa(lp560
(lp561
F215.21604919433594
aF275.462890625
aaa(lp562
(lp563
F222.55294799804688
aF215.1096954345703
aaa(lp564
(lp565
F227.3735809326172
aF159.5576171875
aaa(lp566
(lp567
F227.60614013671875
aF105.07511138916016
aaa(lp568
(lp569
F241.12551879882812
aF309.1728515625
aaa(lp570
(lp571
F247.6243438720703
aF243.2036895751953
aaa(lp572
(lp573
F251.91200256347656
aF183.77854919433594
aaa(lp574
(lp575
F252.4165496826172
aF126.57837677001953
aaa(lp576
(lp577
F275.6745300292969
aF274.89739990234375
aaa(lp578
(lp579
F279.00811767578125
aF210.47373962402344
aaa(lp580
(lp581
F279.2408752441406
aF149.9587860107422
aaa(lp582
(lp583
F277.58203125
aF91.8536605834961
aaa(lp584
(lp585
F307.38555908203125
aF310.7666320800781
aaa(lp586
(lp587
F309.29486083984375
aF240.26004028320312
aaa(lp588
(lp589
F308.728515625
aF175.63241577148438
aaa(lp590
(lp591
F306.5607604980469
aF114.15985107421875
aaa(lp592
(lp593
F343.37158203125
aF273.99786376953125
aaa(lp594
(lp595
F341.481689453125
aF204.02340698242188
aaa(lp596
(lp597
F338.3799133300781
aF138.6665802001953
aaa(lp598
(lp599
F335.0582275390625
aF76.64323425292969
aaa(lp600
(lp601
F382.39947509765625
aF312.7201232910156
aaa(lp602
(lp603
F378.38787841796875
aF235.95216369628906
aaa(lp604
(lp605
F373.8045654296875
aF165.7469940185547
aaa(lp606
(lp607
F369.4875183105469
aF99.90061950683594
aaa(lp608
(lp609
F420.5805969238281
aF272.5318603515625
aaa(lp610
(lp611
F413.8035583496094
aF195.9999542236328
aaa(lp612
(lp613
F407.8205871582031
aF125.53630828857422
aaa(lp614
(lp615
F402.3680419921875
aF59.160850524902344
aaa(lp616
(lp617
F469.0245056152344
aF314.60284423828125
aaa(lp618
(lp619
F459.59564208984375
aF230.4530792236328
aaa(lp620
(lp621
F451.1163330078125
aF153.91075134277344
aaa(lp622
(lp623
F443.7066955566406
aF83.23300170898438
aaaa(lp624
(lp625
(lp626
F78.35270690917969
aF319.5820007324219
aaa(lp627
(lp628
F80.58433532714844
aF231.7592010498047
aaa(lp629
(lp630
F82.44865417480469
aF146.3992462158203
aaa(lp631
(lp632
F84.37622833251953
aF62.65910720825195
aaa(lp633
(lp634
F125.17552185058594
aF273.6174621582031
aaa(lp635
(lp636
F126.54012298583984
aF190.25509643554688
aaa(lp637
(lp638
F127.53772735595703
aF109.7278823852539
aaa(lp639
(lp640
F129.0194549560547
aF27.467748641967773
aaa(lp641
(lp642
F166.84042358398438
aF313.11260986328125
aaa(lp643
(lp644
F167.3738555908203
aF231.1990509033203
aaa(lp645
(lp646
F167.5780029296875
aF153.1434326171875
aaa(lp647
(lp648
F168.88265991210938
aF75.24209594726562
aaa(lp649
(lp650
F205.46897888183594
aF269.86419677734375
aaa(lp651
(lp652
F204.64334106445312
aF193.2713165283203
aaa(lp653
(lp654
F205.50863647460938
aF118.64984893798828
aaa(lp655
(lp656
F208.74517822265625
aF41.053382873535156
aaa(lp657
(lp658
F241.28591918945312
aF306.342529296875
aaa(lp659
(lp660
F239.47372436523438
aF230.97047424316406
aaa(lp661
(lp662
F239.5057373046875
aF158.55743408203125
aaa(lp663
(lp664
F242.64303588867188
aF85.12320709228516
aaa(lp665
(lp666
F272.26361083984375
aF266.64013671875
aaa(lp667
(lp668
F271.4033203125
aF195.75
aaa(lp669
(lp670
F274.08392333984375
aF125.44800567626953
aaa(lp671
(lp672
F278.7447204589844
aF52.57014846801758
aaa(lp673
(lp674
F303.2267150878906
aF300.41827392578125
aaa(lp675
(lp676
F301.45245361328125
aF230.7486572265625
aaa(lp677
(lp678
F303.58935546875
aF162.8665313720703
aaa(lp679
(lp680
F307.9710998535156
aF93.4324722290039
aaa(lp681
(lp682
F329.8789367675781
aF263.9402160644531
aaa(lp683
(lp684
F331.3937683105469
aF197.83299255371094
aaa(lp685
(lp686
F335.5325012207031
aF131.3504638671875
aaa(lp687
(lp688
F340.8383483886719
aF62.5378532409668
aaa(lp689
(lp690
F356.8621826171875
aF295.49493408203125
aaa(lp691
(lp692
F357.5951232910156
aF230.73544311523438
aaa(lp693
(lp694
F361.5384826660156
aF166.64346313476562
aaa(lp695
(lp696
F366.24505615234375
aF100.83273315429688
aaa(lp697
(lp698
F382.4999084472656
aF262.0194091796875
aaa(lp699
(lp700
F386.33319091796875
aF199.78366088867188
aaa(lp701
(lp702
F390.5859069824219
aF136.5549774169922
aaa(lp703
(lp704
F396.01800537109375
aF71.33673858642578
aaa(lp705
(lp706
F406.2132263183594
aF291.79083251953125
aaa(lp707
(lp708
F409.8733215332031
aF231.08642578125
aaa(lp709
(lp710
F414.2499084472656
aF169.9939422607422
aaa(lp711
(lp712
F418.51373291015625
aF107.34962463378906
aaaa(lp713
(lp714
(lp715
F126.08277130126953
aF258.26947021484375
aaa(lp716
(lp717
F129.7592010498047
aF207.3843994140625
aaa(lp718
(lp719
F133.6055145263672
aF158.8995819091797
aaa(lp720
(lp721
F137.4690704345703
aF112.23445129394531
aaa(lp722
(lp723
F151.8553924560547
aF232.7631072998047
aaa(lp724
(lp725
F155.7313232421875
aF183.07183837890625
aaa(lp726
(lp727
F159.64260864257812
aF135.86451721191406
aaa(lp728
(lp729
F161.4167022705078
aF88.28170776367188
aaa(lp730
(lp731
F174.8955078125
aF259.13031005859375
aaa(lp732
(lp733
F178.57833862304688
aF207.99905395507812
aaa(lp734
(lp735
F182.1696319580078
aF159.8883514404297
aaa(lp736
(lp737
F184.66293334960938
aF112.36234283447266
aaa(lp738
(lp739
F202.11610412597656
aF233.83114624023438
aaa(lp740
(lp741
F205.13925170898438
aF184.33059692382812
aaa(lp742
(lp743
F207.5790252685547
aF136.40170288085938
aaa(lp744
(lp745
F208.3487091064453
aF87.42750549316406
aaa(lp746
(lp747
F226.28965759277344
aF260.4464111328125
aaa(lp748
(lp749
F228.77830505371094
aF209.4282989501953
aaa(lp750
(lp751
F230.8557891845703
aF160.6738739013672
aaa(lp752
(lp753
F231.93336486816406
aF111.66021728515625
aaa(lp754
(lp755
F253.00613403320312
aF235.32664489746094
aaa(lp756
(lp757
F254.63636779785156
aF185.4055633544922
aaa(lp758
(lp759
F255.7335968017578
aF136.07754516601562
aaa(lp760
(lp761
F256.3390808105469
aF86.30736541748047
aaa(lp762
(lp763
F277.9064025878906
aF262.0225524902344
aaa(lp764
(lp765
F278.9492492675781
aF210.67555236816406
aaa(lp766
(lp767
F279.8999938964844
aF160.8136444091797
aaa(lp768
(lp769
F280.5685119628906
aF110.80311584472656
aaa(lp770
(lp771
F303.903076171875
aF236.73756408691406
aaa(lp772
(lp773
F304.5359802246094
aF185.92054748535156
aaa(lp774
(lp775
F305.1430358886719
aF135.59812927246094
aaa(lp776
(lp777
F305.7677917480469
aF85.10564422607422
aaa(lp778
(lp779
F329.5006103515625
aF263.52099609375
aaa(lp780
(lp781
F329.73541259765625
aF211.57461547851562
aaa(lp782
(lp783
F330.1919250488281
aF160.7369842529297
aaa(lp784
(lp785
F330.735595703125
aF109.9924087524414
aaa(lp786
(lp787
F355.5062561035156
aF237.950927734375
aaa(lp788
(lp789
F355.80517578125
aF186.2478790283203
aaa(lp790
(lp791
F356.18804931640625
aF135.15025329589844
aaa(lp792
(lp793
F356.8311462402344
aF83.9367446899414
aaa(lp794
(lp795
F382.0097351074219
aF265.0660095214844
aaa(lp796
(lp797
F382.0892639160156
aF212.3643341064453
aaa(lp798
(lp799
F382.31060791015625
aF160.5747528076172
aaa(lp800
(lp801
F382.6007995605469
aF109.09263610839844
aaaa(lp802
(lp803
(lp804
F34.28589630126953
aF319.60882568359375
aaa(lp805
(lp806
F59.7486457824707
aF241.28268432617188
aaa(lp807
(lp808
F81.10379028320312
aF179.38427734375
aaa(lp809
(lp810
F99.05792236328125
aF129.0438690185547
aaa(lp811
(lp812
F86.64244079589844
aF275.76251220703125
aaa(lp813
(lp814
F107.36702728271484
aF207.3226776123047
aaa(lp815
(lp816
F124.19834899902344
aF152.90328979492188
aaa(lp817
(lp818
F135.15309143066406
aF102.65181732177734
aaa(lp819
(lp820
F117.85255432128906
aF316.0074462890625
aaa(lp821
(lp822
F136.90695190429688
aF238.84506225585938
aaa(lp823
(lp824
F151.74844360351562
aF179.15000915527344
aaa(lp825
(lp826
F162.47865295410156
aF126.61770629882812
aaa(lp827
(lp828
F170.10459899902344
aF274.92950439453125
aaa(lp829
(lp830
F182.1499786376953
aF207.91627502441406
aaa(lp831
(lp832
F191.00148010253906
aF151.45230102539062
aaa(lp833
(lp834
F196.13815307617188
aF97.92626190185547
aaa(lp835
(lp836
F207.76942443847656
aF316.1156311035156
aaa(lp837
(lp838
F216.17623901367188
aF240.107666015625
aaa(lp839
(lp840
F222.24815368652344
aF178.29981994628906
aaa(lp841
(lp842
F225.90289306640625
aF121.76087951660156
aaa(lp843
(lp844
F254.4493408203125
aF276.7154541015625
aaa(lp845
(lp846
F256.84503173828125
aF207.81922912597656
aaa(lp847
(lp848
F258.1427001953125
aF147.20106506347656
aaa(lp849
(lp850
F258.6335144042969
aF92.4925765991211
aaa(lp851
(lp852
F298.0708312988281
aF318.596435546875
aaa(lp853
(lp854
F295.49554443359375
aF240.74949645996094
aaa(lp855
(lp856
F293.5452880859375
aF174.85704040527344
aaa(lp857
(lp858
F291.6183166503906
aF116.37516784667969
aaa(lp859
(lp860
F339.1298522949219
aF278.0970764160156
aaa(lp861
(lp862
F332.75848388671875
aF205.1922149658203
aaa(lp863
(lp864
F327.6973876953125
aF142.17459106445312
aaa(lp865
(lp866
F323.4398498535156
aF86.95276641845703
aaa(lp867
(lp868
F389.2189636230469
aF321.0979919433594
aaa(lp869
(lp870
F376.666259765625
aF239.13421630859375
aaa(lp871
(lp872
F367.53973388671875
aF170.29324340820312
aaa(lp873
(lp874
F360.07952880859375
aF111.17367553710938
aaa(lp875
(lp876
F426.7143859863281
aF277.81036376953125
aaa(lp877
(lp878
F412.22100830078125
aF201.20968627929688
aaa(lp879
(lp880
F400.57672119140625
aF137.19818115234375
aaa(lp881
(lp882
F391.0791015625
aF81.63343811035156
aaa(lp883
(lp884
F483.5809631347656
aF322.0049743652344
aaa(lp885
(lp886
F462.78765869140625
aF236.0143280029297
aaa(lp887
(lp888
F445.9662170410156
aF165.2784423828125
aaa(lp889
(lp890
F431.831298828125
aF105.91336822509766
aaaa(lp891
(lp892
(lp893
F37.302757263183594
aF222.82313537597656
aaa(lp894
(lp895
F71.94393920898438
aF188.6211700439453
aaa(lp896
(lp897
F106.56507110595703
aF155.06533813476562
aaa(lp898
(lp899
F141.13687133789062
aF121.7308120727539
aaa(lp900
(lp901
F68.6894760131836
aF221.0983428955078
aaa(lp902
(lp903
F104.45497131347656
aF187.19224548339844
aaa(lp904
(lp905
F139.90216064453125
aF153.98516845703125
aaa(lp906
(lp907
F173.602294921875
aF117.8858413696289
aaa(lp908
(lp909
F65.58118438720703
aF254.92686462402344
aaa(lp910
(lp911
F102.4299545288086
aF220.42543029785156
aaa(lp912
(lp913
F138.47897338867188
aF186.8331298828125
aaa(lp914
(lp915
F173.45333862304688
aF151.783935546875
aaa(lp916
(lp917
F100.22416687011719
aF254.84375
aaa(lp918
(lp919
F137.06661987304688
aF220.4330596923828
aaa(lp920
(lp921
F172.63526916503906
aF185.53701782226562
aaa(lp922
(lp923
F206.953369140625
aF147.50965881347656
aaa(lp924
(lp925
F97.9178237915039
aF290.3390808105469
aaa(lp926
(lp927
F135.62332153320312
aF255.0286865234375
aaa(lp928
(lp929
F171.81814575195312
aF219.85813903808594
aaa(lp930
(lp931
F206.93785095214844
aF182.4823455810547
aaa(lp932
(lp933
F133.9821014404297
aF290.7253112792969
aaa(lp934
(lp935
F170.98062133789062
aF254.92393493652344
aaa(lp936
(lp937
F206.6934051513672
aF217.93948364257812
aaa(lp938
(lp939
F242.58106994628906
aF178.88623046875
aaa(lp940
(lp941
F132.27264404296875
aF327.5277404785156
aaa(lp942
(lp943
F170.058349609375
aF290.91876220703125
aaa(lp944
(lp945
F206.3826904296875
aF253.9805908203125
aaa(lp946
(lp947
F242.8586883544922
aF215.35012817382812
aaa(lp948
(lp949
F169.0239715576172
aF328.03118896484375
aaa(lp950
(lp951
F206.1078643798828
aF290.7563781738281
aaa(lp952
(lp953
F243.0291290283203
aF252.48036193847656
aaa(lp954
(lp955
F281.00360107421875
aF212.6319580078125
aaa(lp956
(lp957
F167.897705078125
aF366.2610168457031
aaa(lp958
(lp959
F205.8030548095703
aF328.5022277832031
aaa(lp960
(lp961
F243.21847534179688
aF290.3503112792969
aaa(lp962
(lp963
F281.7323913574219
aF250.83714294433594
aaa(lp964
(lp965
F205.36880493164062
aF367.3316345214844
aaa(lp966
(lp967
F243.3941650390625
aF329.0890197753906
aaa(lp968
(lp969
F282.37615966796875
aF289.8233337402344
aaa(lp970
(lp971
F322.7312316894531
aF249.17193603515625
aaa(lp972
(lp973
F204.96871948242188
aF407.4900817871094
aaa(lp974
(lp975
F243.66017150878906
aF368.8925476074219
aaa(lp976
(lp977
F283.05377197265625
aF329.6945495605469
aaa(lp978
(lp979
F323.9532470703125
aF289.24359130859375
aaaa(lp980
(lp981
(lp982
F34.91130447387695
aF213.27020263671875
aaa(lp983
(lp984
F65.94226837158203
aF158.69818115234375
aaa(lp985
(lp986
F96.58403015136719
aF106.1671142578125
aaa(lp987
(lp988
F126.53593444824219
aF55.23918151855469
aaa(lp989
(lp990
F75.09609985351562
aF199.3506317138672
aaa(lp991
(lp992
F107.02061462402344
aF145.6202392578125
aaa(lp993
(lp994
F137.79827880859375
aF94.1810302734375
aaa(lp995
(lp996
F165.2221221923828
aF40.83847427368164
aaa(lp997
(lp998
F84.89508819580078
aF241.6102294921875
aaa(lp999
(lp1000
F117.85807800292969
aF186.20391845703125
aaa(lp1001
(lp1002
F149.083251953125
aF133.79078674316406
aaa(lp1003
(lp1004
F177.91468811035156
aF81.15673065185547
aaa(lp1005
(lp1006
F128.84523010253906
aF228.074462890625
aaa(lp1007
(lp1008
F160.4774627685547
aF173.9356231689453
aaa(lp1009
(lp1010
F189.8317108154297
aF121.09274291992188
aaa(lp1011
(lp1012
F216.7046356201172
aF65.75565338134766
aaa(lp1013
(lp1014
F139.9371337890625
aF271.2462463378906
aaa(lp1015
(lp1016
F172.05381774902344
aF215.08482360839844
aaa(lp1017
(lp1018
F201.76292419433594
aF161.31109619140625
aaa(lp1019
(lp1020
F229.52615356445312
aF106.49346160888672
aaa(lp1021
(lp1022
F183.79852294921875
aF257.49853515625
aaa(lp1023
(lp1024
F213.89492797851562
aF202.25172424316406
aaa(lp1025
(lp1026
F242.18240356445312
aF147.43365478515625
aaa(lp1027
(lp1028
F269.931640625
aF91.14998626708984
aaa(lp1029
(lp1030
F195.7584686279297
aF301.1889953613281
aaa(lp1031
(lp1032
F226.28759765625
aF244.11436462402344
aaa(lp1033
(lp1034
F254.96453857421875
aF188.8446044921875
aaa(lp1035
(lp1036
F283.2349548339844
aF132.68060302734375
aaa(lp1037
(lp1038
F238.8678741455078
aF287.2076416015625
aaa(lp1039
(lp1040
F267.9983215332031
aF230.89060974121094
aaa(lp1041
(lp1042
F296.6203918457031
aF174.7461700439453
aaa(lp1043
(lp1044
F325.5690612792969
aF117.49446868896484
aaa(lp1045
(lp1046
F251.72689819335938
aF331.573486328125
aaa(lp1047
(lp1048
F281.3017883300781
aF273.86749267578125
aaa(lp1049
(lp1050
F310.2552490234375
aF217.43226623535156
aaa(lp1051
(lp1052
F339.55694580078125
aF160.16781616210938
aaa(lp1053
(lp1054
F294.79510498046875
aF317.984375
aaa(lp1055
(lp1056
F324.2046203613281
aF260.86199951171875
aaa(lp1057
(lp1058
F353.7379455566406
aF203.46214294433594
aaa(lp1059
(lp1060
F383.9347229003906
aF145.16384887695312
aaa(lp1061
(lp1062
F308.69775390625
aF363.50054931640625
aaa(lp1063
(lp1064
F338.5299072265625
aF305.2837829589844
aaa(lp1065
(lp1066
F368.35980224609375
aF247.501220703125
aaa(lp1067
(lp1068
F398.6463928222656
aF188.9546661376953
aaaa(lp1069
(lp1070
(lp1071
F53.389183044433594
aF255.05345153808594
aaa(lp1072
(lp1073
F55.437679290771484
aF200.52056884765625
aaa(lp1074
(lp1075
F58.12403106689453
aF143.0179901123047
aaa(lp1076
(lp1077
F61.28446960449219
aF82.3331298828125
aaa(lp1078
(lp1079
F82.25308227539062
aF232.35617065429688
aaa(lp1080
(lp1081
F86.23609924316406
aF176.18838500976562
aaa(lp1082
(lp1083
F90.52948760986328
aF117.55984497070312
aaa(lp1084
(lp1085
F92.2947006225586
aF55.22076416015625
aaa(lp1086
(lp1087
F108.58878326416016
aF263.0688781738281
aaa(lp1088
(lp1089
F113.54234313964844
aF208.13807678222656
aaa(lp1090
(lp1091
F118.64606475830078
aF151.40206909179688
aaa(lp1092
(lp1093
F122.48444366455078
aF91.6839370727539
aaa(lp1094
(lp1095
F139.7933349609375
aF239.01797485351562
aaa(lp1096
(lp1097
F145.4241180419922
aF183.66259765625
aaa(lp1098
(lp1099
F150.46902465820312
aF126.45989990234375
aaa(lp1100
(lp1101
F153.48521423339844
aF65.0899658203125
aaa(lp1102
(lp1103
F164.9919891357422
aF268.8985900878906
aaa(lp1104
(lp1105
F171.0579376220703
aF214.70724487304688
aaa(lp1106
(lp1107
F176.8749542236328
aF159.41505432128906
aaa(lp1108
(lp1109
F181.7272491455078
aF101.1121826171875
aaa(lp1110
(lp1111
F195.69949340820312
aF244.78565979003906
aaa(lp1112
(lp1113
F202.0524139404297
aF190.89785766601562
aaa(lp1114
(lp1115
F208.10009765625
aF135.218505859375
aaa(lp1116
(lp1117
F213.9700927734375
aF74.84481811523438
aaa(lp1118
(lp1119
F219.4612579345703
aF273.8913269042969
aaa(lp1120
(lp1121
F226.21682739257812
aF221.204833984375
aaa(lp1122
(lp1123
F233.14035034179688
aF167.6381378173828
aaa(lp1124
(lp1125
F240.25314331054688
aF110.23272705078125
aaa(lp1126
(lp1127
F249.5176239013672
aF250.57826232910156
aaa(lp1128
(lp1129
F257.10626220703125
aF198.66604614257812
aaa(lp1130
(lp1131
F265.16815185546875
aF143.93336486816406
aaa(lp1132
(lp1133
F273.93646240234375
aF84.15494537353516
aaa(lp1134
(lp1135
F271.986328125
aF278.9758605957031
aaa(lp1136
(lp1137
F280.098388671875
aF228.4579620361328
aaa(lp1138
(lp1139
F288.9513854980469
aF176.11668395996094
aaa(lp1140
(lp1141
F298.5966491699219
aF119.1014404296875
aaa(lp1142
(lp1143
F302.1971130371094
aF257.224853515625
aaa(lp1144
(lp1145
F311.7896423339844
aF206.92233276367188
aaa(lp1146
(lp1147
F322.11639404296875
aF152.5374298095703
aaa(lp1148
(lp1149
F333.6126403808594
aF93.07662200927734
aaa(lp1150
(lp1151
F323.4493713378906
aF284.9779968261719
aaa(lp1152
(lp1153
F333.69866943359375
aF236.5103759765625
aaa(lp1154
(lp1155
F344.7141418457031
aF184.58604431152344
aaa(lp1156
(lp1157
F356.7178955078125
aF127.68607330322266
aaaa(lp1158
(lp1159
(lp1160
F44.867008209228516
aF338.9082336425781
aaa(lp1161
(lp1162
F48.35850143432617
aF274.89990234375
aaa(lp1163
(lp1164
F52.75803756713867
aF211.8872528076172
aaa(lp1165
(lp1166
F57.3892936706543
aF149.9982452392578
aaa(lp1167
(lp1168
F75.89950561523438
aF308.8621520996094
aaa(lp1169
(lp1170
F81.04385375976562
aF244.55636596679688
aaa(lp1171
(lp1172
F86.31407165527344
aF182.1855926513672
aaa(lp1173
(lp1174
F87.78014373779297
aF119.68372344970703
aaa(lp1175
(lp1176
F104.53834533691406
aF343.4877624511719
aaa(lp1177
(lp1178
F109.96501922607422
aF277.6584167480469
aaa(lp1179
(lp1180
F115.3055191040039
aF214.5880126953125
aaa(lp1181
(lp1182
F118.48021697998047
aF152.36294555664062
aaa(lp1183
(lp1184
F139.2198486328125
aF311.45343017578125
aaa(lp1185
(lp1186
F144.3056640625
aF247.07470703125
aaa(lp1187
(lp1188
F147.91754150390625
aF184.8371124267578
aaa(lp1189
(lp1190
F148.31724548339844
aF121.67709350585938
aaa(lp1191
(lp1192
F168.7413330078125
aF345.91265869140625
aaa(lp1193
(lp1194
F173.50115966796875
aF279.9960632324219
aaa(lp1195
(lp1196
F177.1245574951172
aF217.2279815673828
aaa(lp1197
(lp1198
F178.67001342773438
aF154.5059051513672
aaa(lp1199
(lp1200
F202.95457458496094
aF313.5449523925781
aaa(lp1201
(lp1202
F206.38995361328125
aF249.73777770996094
aaa(lp1203
(lp1204
F208.53245544433594
aF187.2576904296875
aaa(lp1205
(lp1206
F209.6890411376953
aF123.42487335205078
aaa(lp1207
(lp1208
F232.74876403808594
aF347.7354736328125
aaa(lp1209
(lp1210
F235.90359497070312
aF282.5658264160156
aaa(lp1211
(lp1212
F238.34616088867188
aF220.0027313232422
aaa(lp1213
(lp1214
F240.16636657714844
aF156.56724548339844
aaa(lp1215
(lp1216
F265.6972351074219
aF315.9762878417969
aaa(lp1217
(lp1218
F268.232421875
aF252.8337860107422
aaa(lp1219
(lp1220
F270.51715087890625
aF189.78109741210938
aaa(lp1221
(lp1222
F272.6953125
aF125.06381225585938
aaa(lp1223
(lp1224
F295.8684997558594
aF350.044189453125
aaa(lp1225
(lp1226
F298.3175354003906
aF285.86102294921875
aaa(lp1227
(lp1228
F300.9373779296875
aF223.02842712402344
aaa(lp1229
(lp1230
F303.5763854980469
aF158.64303588867188
aaa(lp1231
(lp1232
F328.6873779296875
aF319.4382629394531
aaa(lp1233
(lp1234
F331.5181884765625
aF256.3763427734375
aaa(lp1235
(lp1236
F334.45428466796875
aF192.3842315673828
aaa(lp1237
(lp1238
F337.5808410644531
aF126.74506378173828
aaa(lp1239
(lp1240
F359.46063232421875
aF353.6512756347656
aaa(lp1241
(lp1242
F362.3941345214844
aF290.01031494140625
aaa(lp1243
(lp1244
F365.55828857421875
aF226.18711853027344
aaa(lp1245
(lp1246
F368.8125915527344
aF160.76112365722656
aaaa(lp1247
(lp1248
(lp1249
F157.01292419433594
aF319.06982421875
aaa(lp1250
(lp1251
F157.26527404785156
aF260.4490966796875
aaa(lp1252
(lp1253
F157.9968719482422
aF202.84185791015625
aaa(lp1254
(lp1255
F158.95550537109375
aF145.97657775878906
aaa(lp1256
(lp1257
F183.33187866210938
aF290.8760986328125
aaa(lp1258
(lp1259
F184.3694305419922
aF231.71444702148438
aaa(lp1260
(lp1261
F185.71583557128906
aF173.97817993164062
aaa(lp1262
(lp1263
F184.44577026367188
aF115.9439926147461
aaa(lp1264
(lp1265
F210.74264526367188
aF322.4921569824219
aaa(lp1266
(lp1267
F211.84844970703125
aF261.57330322265625
aaa(lp1268
(lp1269
F213.1061248779297
aF202.73155212402344
aaa(lp1270
(lp1271
F213.07791137695312
aF144.27369689941406
aaa(lp1272
(lp1273
F240.3339080810547
aF292.58221435546875
aaa(lp1274
(lp1275
F241.24832153320312
aF232.14256286621094
aaa(lp1276
(lp1277
F241.4809112548828
aF173.11326599121094
aaa(lp1278
(lp1279
F239.53990173339844
aF113.07449340820312
aaa(lp1280
(lp1281
F269.7524719238281
aF324.75311279296875
aaa(lp1282
(lp1283
F270.29779052734375
aF262.51409912109375
aaa(lp1284
(lp1285
F270.4799499511719
aF202.51153564453125
aaa(lp1286
(lp1287
F269.3408508300781
aF142.2117919921875
aaa(lp1288
(lp1289
F300.2586669921875
aF293.9975891113281
aaa(lp1290
(lp1291
F300.18963623046875
aF232.5973663330078
aaa(lp1292
(lp1293
F299.53033447265625
aF171.99044799804688
aaa(lp1294
(lp1295
F298.2424621582031
aF109.8615493774414
aaa(lp1296
(lp1297
F331.24700927734375
aF326.7324523925781
aaa(lp1298
(lp1299
F330.7394104003906
aF263.5394592285156
aaa(lp1300
(lp1301
F330.2979736328125
aF202.31112670898438
aaa(lp1302
(lp1303
F329.57891845703125
aF139.9927215576172
aaa(lp1304
(lp1305
F362.3209228515625
aF295.6878967285156
aaa(lp1306
(lp1307
F361.8245544433594
aF233.33587646484375
aaa(lp1308
(lp1309
F361.5410461425781
aF170.79141235351562
aaa(lp1310
(lp1311
F361.3966064453125
aF106.28726196289062
aaa(lp1312
(lp1313
F395.15447998046875
aF329.1986999511719
aaa(lp1314
(lp1315
F394.38726806640625
aF265.2422790527344
aaa(lp1316
(lp1317
F394.34381103515625
aF202.22560119628906
aaa(lp1318
(lp1319
F394.59027099609375
aF137.45494079589844
aaa(lp1320
(lp1321
F428.1961669921875
aF298.42010498046875
aaa(lp1322
(lp1323
F428.34600830078125
aF234.4883270263672
aaa(lp1324
(lp1325
F428.8109130859375
aF169.4032440185547
aaa(lp1326
(lp1327
F429.83056640625
aF102.18855285644531
aaa(lp1328
(lp1329
F462.7966003417969
aF332.58905029296875
aaa(lp1330
(lp1331
F463.46368408203125
aF267.77838134765625
aaa(lp1332
(lp1333
F464.2822570800781
aF202.1413116455078
aaa(lp1334
(lp1335
F465.1859436035156
aF134.54469299316406
aaaa(lp1336
(lp1337
(lp1338
F35.574195861816406
aF321.6166687011719
aaa(lp1339
(lp1340
F47.854949951171875
aF234.1498260498047
aaa(lp1341
(lp1342
F60.088863372802734
aF155.43862915039062
aaa(lp1343
(lp1344
F71.34498596191406
aF84.39076232910156
aaa(lp1345
(lp1346
F80.42713928222656
aF277.1714782714844
aaa(lp1347
(lp1348
F92.8394546508789
aF193.59719848632812
aaa(lp1349
(lp1350
F104.07134246826172
aF119.08998107910156
aaa(lp1351
(lp1352
F109.79959106445312
aF46.44852828979492
aaa(lp1353
(lp1354
F116.32626342773438
aF324.0911560058594
aaa(lp1355
(lp1356
F128.08302307128906
aF234.47116088867188
aaa(lp1357
(lp1358
F138.3332061767578
aF156.13636779785156
aaa(lp1359
(lp1360
F145.07046508789062
aF82.20279693603516
aaa(lp1361
(lp1362
F165.69207763671875
aF278.6192932128906
aaa(lp1363
(lp1364
F174.27037048339844
aF194.94500732421875
aaa(lp1365
(lp1366
F180.49131774902344
aF118.59765625
aaa(lp1367
(lp1368
F182.47128295898438
aF42.04851150512695
aaa(lp1369
(lp1370
F205.97357177734375
aF326.3535461425781
aaa(lp1371
(lp1372
F212.47882080078125
aF236.36419677734375
aaa(lp1373
(lp1374
F217.39248657226562
aF156.2611846923828
aaa(lp1375
(lp1376
F219.6702117919922
aF78.48820495605469
aaa(lp1377
(lp1378
F253.34381103515625
aF281.02752685546875
aaa(lp1379
(lp1380
F256.3279724121094
aF195.874755859375
aaa(lp1381
(lp1382
F258.0391845703125
aF115.82295227050781
aaa(lp1383
(lp1384
F258.6800842285156
aF36.83619689941406
aaa(lp1385
(lp1386
F297.298828125
aF329.2895812988281
aaa(lp1387
(lp1388
F297.8281555175781
aF238.07254028320312
aaa(lp1389
(lp1390
F298.32623291015625
aF154.74728393554688
aaa(lp1391
(lp1392
F298.4532165527344
aF73.95784759521484
aaa(lp1393
(lp1394
F342.2349548339844
aF283.4678649902344
aaa(lp1395
(lp1396
F340.9551086425781
aF195.62864685058594
aaa(lp1397
(lp1398
F340.10687255859375
aF112.37593841552734
aaa(lp1399
(lp1400
F339.7030029296875
aF30.921720504760742
aaa(lp1401
(lp1402
F390.3670349121094
aF332.7790222167969
aaa(lp1403
(lp1404
F386.4241638183594
aF239.14764404296875
aaa(lp1405
(lp1406
F384.25018310546875
aF152.54718017578125
aaa(lp1407
(lp1408
F382.78369140625
aF68.99542236328125
aaa(lp1409
(lp1410
F435.55859375
aF286.1355285644531
aaa(lp1411
(lp1412
F431.6319885253906
aF194.89776611328125
aaa(lp1413
(lp1414
F428.5152282714844
aF108.53662109375
aaa(lp1415
(lp1416
F426.0858459472656
aF25.13355827331543
aaa(lp1417
(lp1418
F487.8512268066406
aF336.5212097167969
aaa(lp1419
(lp1420
F482.39654541015625
aF240.21127319335938
aaa(lp1421
(lp1422
F477.6263427734375
aF149.89305114746094
aaa(lp1423
(lp1424
F472.8579406738281
aF64.11564636230469
aaaa(lp1425
(lp1426
(lp1427
F67.92691040039062
aF300.68975830078125
aaa(lp1428
(lp1429
F64.5683822631836
aF232.06607055664062
aaa(lp1430
(lp1431
F61.88083267211914
aF159.0648956298828
aaa(lp1432
(lp1433
F59.290958404541016
aF81.44469451904297
aaa(lp1434
(lp1435
F98.84900665283203
aF270.65625
aaa(lp1436
(lp1437
F98.2479476928711
aF198.5832977294922
aaa(lp1438
(lp1439
F97.73247528076172
aF122.8592758178711
aaa(lp1440
(lp1441
F92.36296081542969
aF41.14095687866211
aaa(lp1442
(lp1443
F133.26968383789062
aF308.7968444824219
aaa(lp1444
(lp1445
F134.25323486328125
aF237.3842315673828
aaa(lp1446
(lp1447
F135.26405334472656
aF163.42245483398438
aaa(lp1448
(lp1449
F133.58343505859375
aF84.7502670288086
aaa(lp1450
(lp1451
F169.64405822753906
aF275.8003845214844
aaa(lp1452
(lp1453
F171.6001739501953
aF202.8505401611328
aaa(lp1454
(lp1455
F172.18797302246094
aF126.99617004394531
aaa(lp1456
(lp1457
F168.51768493652344
aF43.6241455078125
aaa(lp1458
(lp1459
F204.42984008789062
aF313.8358459472656
aaa(lp1460
(lp1461
F207.20838928222656
aF241.61720275878906
aaa(lp1462
(lp1463
F209.24456787109375
aF167.6747589111328
aaa(lp1464
(lp1465
F208.9723663330078
aF88.33891296386719
aaa(lp1466
(lp1467
F242.1918487548828
aF279.9748229980469
aaa(lp1468
(lp1469
F245.3053436279297
aF207.29261779785156
aaa(lp1470
(lp1471
F247.37149047851562
aF131.18504333496094
aaa(lp1472
(lp1473
F248.47572326660156
aF46.139381408691406
aaa(lp1474
(lp1475
F276.65875244140625
aF317.89276123046875
aaa(lp1476
(lp1477
F280.6466064453125
aF246.1848907470703
aaa(lp1478
(lp1479
F284.53228759765625
aF172.5904998779297
aaa(lp1480
(lp1481
F288.2118835449219
aF91.76703643798828
aaa(lp1482
(lp1483
F315.3442687988281
aF284.5990295410156
aaa(lp1484
(lp1485
F320.6819763183594
aF212.91030883789062
aaa(lp1486
(lp1487
F326.490966796875
aF135.6806640625
aaa(lp1488
(lp1489
F333.27288818359375
aF48.12464141845703
aaa(lp1490
(lp1491
F349.56689453125
aF322.60125732421875
aaa(lp1492
(lp1493
F356.0213317871094
aF252.26390075683594
aaa(lp1494
(lp1495
F363.67010498046875
aF178.18572998046875
aaa(lp1496
(lp1497
F372.6226806640625
aF94.90191650390625
aaa(lp1498
(lp1499
F390.8042907714844
aF291.15106201171875
aaa(lp1500
(lp1501
F400.12591552734375
aF219.615966796875
aaa(lp1502
(lp1503
F410.88043212890625
aF140.09246826171875
aaa(lp1504
(lp1505
F423.79840087890625
aF49.77507400512695
aaa(lp1506
(lp1507
F425.1088562011719
aF329.5086669921875
aaa(lp1508
(lp1509
F436.0765686035156
aF260.2188720703125
aaa(lp1510
(lp1511
F448.63385009765625
aF184.07965087890625
aaa(lp1512
(lp1513
F462.8636169433594
aF97.85021209716797
aaaa(lp1514
(lp1515
(lp1516
F55.5801887512207
aF321.64990234375
aaa(lp1517
(lp1518
F56.700347900390625
aF248.8805694580078
aaa(lp1519
(lp1520
F58.92748260498047
aF176.6380157470703
aaa(lp1521
(lp1522
F61.37607955932617
aF105.07648468017578
aaa(lp1523
(lp1524
F84.94597625732422
aF288.17987060546875
aaa(lp1525
(lp1526
F88.4942855834961
aF213.57501220703125
aaa(lp1527
(lp1528
F92.24366760253906
aF140.57101440429688
aaa(lp1529
(lp1530
F89.98460388183594
aF65.74837493896484
aaa(lp1531
(lp1532
F115.39739227294922
aF329.6123962402344
aaa(lp1533
(lp1534
F119.78275299072266
aF252.21246337890625
aaa(lp1535
(lp1536
F124.10816955566406
aF177.52809143066406
aaa(lp1537
(lp1538
F124.72737884521484
aF102.48155975341797
aaa(lp1539
(lp1540
F152.52813720703125
aF292.9241638183594
aaa(lp1541
(lp1542
F156.8876190185547
aF215.66128540039062
aaa(lp1543
(lp1544
F158.72935485839844
aF139.90565490722656
aaa(lp1545
(lp1546
F154.5696563720703
aF60.609519958496094
aaa(lp1547
(lp1548
F186.69000244140625
aF335.8551940917969
aaa(lp1549
(lp1550
F190.99925231933594
aF255.54693603515625
aaa(lp1551
(lp1552
F193.33966064453125
aF178.1881866455078
aaa(lp1553
(lp1554
F191.48171997070312
aF99.08847045898438
aaa(lp1555
(lp1556
F226.61773681640625
aF297.5959167480469
aaa(lp1557
(lp1558
F229.09246826171875
aF217.86239624023438
aaa(lp1559
(lp1560
F228.6470184326172
aF138.30796813964844
aaa(lp1561
(lp1562
F225.853271484375
aF54.62465286254883
aaa(lp1563
(lp1564
F264.0056457519531
aF342.0003356933594
aaa(lp1565
(lp1566
F266.4313659667969
aF259.3115234375
aaa(lp1567
(lp1568
F266.8486328125
aF178.66598510742188
aaa(lp1569
(lp1570
F265.605712890625
aF95.00859832763672
aaa(lp1571
(lp1572
F305.4600830078125
aF302.9822082519531
aaa(lp1573
(lp1574
F306.4491271972656
aF220.4825439453125
aaa(lp1575
(lp1576
F306.3824768066406
aF136.44351196289062
aaa(lp1577
(lp1578
F305.96490478515625
aF47.44379425048828
aaa(lp1579
(lp1580
F346.66058349609375
aF349.32098388671875
aaa(lp1581
(lp1582
F347.7838439941406
aF264.14068603515625
aaa(lp1583
(lp1584
F348.629150390625
aF179.29458618164062
aaa(lp1585
(lp1586
F349.560546875
aF90.15393829345703
aaa(lp1587
(lp1588
F391.341796875
aF310.34503173828125
aaa(lp1589
(lp1590
F392.8424377441406
aF223.88623046875
aaa(lp1591
(lp1592
F394.7999267578125
aF134.19769287109375
aaa(lp1593
(lp1594
F397.4158630371094
aF39.02621841430664
aaa(lp1595
(lp1596
F437.1671142578125
aF359.0320739746094
aaa(lp1597
(lp1598
F439.6315002441406
aF270.7955627441406
aaa(lp1599
(lp1600
F442.43914794921875
aF179.9284210205078
aaa(lp1601
(lp1602
F445.8190002441406
aF84.28185272216797
aaaa(lp1603
(lp1604
(lp1605
F58.07526397705078
aF325.85137939453125
aaa(lp1606
(lp1607
F60.65816879272461
aF238.843994140625
aaa(lp1608
(lp1609
F63.89291000366211
aF153.3365478515625
aaa(lp1610
(lp1611
F67.38780212402344
aF69.14393615722656
aaa(lp1612
(lp1613
F102.62883758544922
aF282.689697265625
aaa(lp1614
(lp1615
F106.31564331054688
aF196.81492614746094
aaa(lp1616
(lp1617
F109.80931091308594
aF113.4895248413086
aaa(lp1618
(lp1619
F110.2755355834961
aF27.86681365966797
aaa(lp1620
(lp1621
F144.5825653076172
aF326.41265869140625
aaa(lp1622
(lp1623
F148.1593475341797
aF239.68226623535156
aaa(lp1624
(lp1625
F151.3868408203125
aF156.8634033203125
aaa(lp1626
(lp1627
F153.2610321044922
aF73.74662780761719
aaa(lp1628
(lp1629
F189.3358917236328
aF282.31817626953125
aaa(lp1630
(lp1631
F191.7807159423828
aF198.9970703125
aaa(lp1632
(lp1633
F194.01011657714844
aF117.6142349243164
aaa(lp1634
(lp1635
F194.819580078125
aF31.904470443725586
aaa(lp1636
(lp1637
F229.9798583984375
aF324.72149658203125
aaa(lp1638
(lp1639
F231.56565856933594
aF240.54832458496094
aaa(lp1640
(lp1641
F233.46005249023438
aF159.7653350830078
aaa(lp1642
(lp1643
F235.4455108642578
aF77.15808868408203
aaa(lp1644
(lp1645
F270.8281555175781
aF281.8006286621094
aaa(lp1646
(lp1647
F272.09539794921875
aF200.92831420898438
aaa(lp1648
(lp1649
F274.5165100097656
aF120.3505859375
aaa(lp1650
(lp1651
F277.48529052734375
aF35.43107986450195
aaa(lp1652
(lp1653
F309.65826416015625
aF322.7762145996094
aaa(lp1654
(lp1655
F310.12774658203125
aF241.39784240722656
aaa(lp1656
(lp1657
F312.6097412109375
aF162.1046142578125
aaa(lp1658
(lp1659
F316.1610107421875
aF79.96208953857422
aaa(lp1660
(lp1661
F347.6763000488281
aF281.52020263671875
aaa(lp1662
(lp1663
F349.9461669921875
aF202.78976440429688
aaa(lp1664
(lp1665
F353.864990234375
aF122.8282241821289
aaa(lp1666
(lp1667
F358.9478454589844
aF38.410892486572266
aaa(lp1668
(lp1669
F385.03692626953125
aF321.483642578125
aaa(lp1670
(lp1671
F386.67962646484375
aF242.66354370117188
aaa(lp1672
(lp1673
F390.9037780761719
aF164.29034423828125
aaa(lp1674
(lp1675
F396.10076904296875
aF82.43711853027344
aaa(lp1676
(lp1677
F423.183349609375
aF282.24053955078125
aaa(lp1678
(lp1679
F427.63311767578125
aF204.8007354736328
aaa(lp1680
(lp1681
F432.798583984375
aF124.99854278564453
aaa(lp1682
(lp1683
F439.0859069824219
aF41.47551345825195
aaa(lp1684
(lp1685
F459.0525817871094
aF321.3378601074219
aaa(lp1686
(lp1687
F463.88946533203125
aF244.62046813964844
aaa(lp1688
(lp1689
F469.4454650878906
aF166.31271362304688
aaa(lp1690
(lp1691
F474.9022216796875
aF85.01508331298828
aaaa(lp1692
(lp1693
(lp1694
F57.743072509765625
aF317.2901611328125
aaa(lp1695
(lp1696
F61.4364128112793
aF236.09793090820312
aaa(lp1697
(lp1698
F65.94403076171875
aF156.63082885742188
aaa(lp1699
(lp1700
F70.66448211669922
aF78.66575622558594
aaa(lp1701
(lp1702
F96.43749237060547
aF278.666015625
aaa(lp1703
(lp1704
F101.87104034423828
aF197.353759765625
aaa(lp1705
(lp1706
F107.18467712402344
aF118.77721405029297
aaa(lp1707
(lp1708
F107.86750030517578
aF38.20865249633789
aaa(lp1709
(lp1710
F133.0379638671875
aF322.6877136230469
aaa(lp1711
(lp1712
F138.75169372558594
aF239.00225830078125
aaa(lp1713
(lp1714
F144.11697387695312
aF159.40158081054688
aaa(lp1715
(lp1716
F146.90760803222656
aF79.74063110351562
aaa(lp1717
(lp1718
F176.37852478027344
aF281.9259338378906
aaa(lp1719
(lp1720
F181.260009765625
aF200.3202362060547
aaa(lp1721
(lp1722
F184.73719787597656
aF120.83527374267578
aaa(lp1723
(lp1724
F184.48779296875
aF37.40944290161133
aaa(lp1725
(lp1726
F214.82174682617188
aF326.1823425292969
aaa(lp1727
(lp1728
F219.0767364501953
aF242.11578369140625
aaa(lp1729
(lp1730
F222.49606323242188
aF161.79061889648438
aaa(lp1731
(lp1732
F223.9508056640625
aF79.79757690429688
aaa(lp1733
(lp1734
F257.6955871582031
aF285.1237487792969
aaa(lp1735
(lp1736
F260.72442626953125
aF203.165771484375
aaa(lp1737
(lp1738
F263.0013427734375
aF121.71743774414062
aaa(lp1739
(lp1740
F264.51849365234375
aF36.16256332397461
aaa(lp1741
(lp1742
F297.2488708496094
aF329.41644287109375
aaa(lp1743
(lp1744
F299.6540222167969
aF245.28256225585938
aaa(lp1745
(lp1746
F302.25531005859375
aF163.6821746826172
aaa(lp1747
(lp1748
F304.7821960449219
aF79.36394500732422
aaa(lp1749
(lp1750
F339.3775329589844
aF288.541259765625
aaa(lp1751
(lp1752
F342.0325927734375
aF205.99656677246094
aaa(lp1753
(lp1754
F345.2226257324219
aF122.42304992675781
aaa(lp1755
(lp1756
F349.0786437988281
aF34.32609558105469
aaa(lp1757
(lp1758
F380.34625244140625
aF333.2675476074219
aaa(lp1759
(lp1760
F382.5201416015625
aF249.0151824951172
aaa(lp1761
(lp1762
F386.20947265625
aF165.57986450195312
aaa(lp1763
(lp1764
F390.703369140625
aF78.59577178955078
aaa(lp1765
(lp1766
F424.167724609375
aF293.23297119140625
aaa(lp1767
(lp1768
F428.2264709472656
aF209.2202606201172
aaa(lp1769
(lp1770
F432.98931884765625
aF122.86864471435547
aaa(lp1771
(lp1772
F438.5932922363281
aF32.578495025634766
aaa(lp1773
(lp1774
F466.4422302246094
aF338.3826904296875
aaa(lp1775
(lp1776
F471.1890869140625
aF253.74087524414062
aaa(lp1777
(lp1778
F476.4582214355469
aF167.4121551513672
aaa(lp1779
(lp1780
F481.7218933105469
aF77.90836334228516
aaaa(lp1781
(lp1782
(lp1783
F45.296260833740234
aF260.3913879394531
aaa(lp1784
(lp1785
F64.8947525024414
aF192.70042419433594
aaa(lp1786
(lp1787
F84.53553009033203
aF127.39826202392578
aaa(lp1788
(lp1789
F103.80252075195312
aF64.00572967529297
aaa(lp1790
(lp1791
F85.87247467041016
aF234.59957885742188
aaa(lp1792
(lp1793
F106.52735900878906
aF167.6722412109375
aaa(lp1794
(lp1795
F126.4340591430664
aF103.61727905273438
aaa(lp1796
(lp1797
F142.48587036132812
aF37.84917068481445
aaa(lp1798
(lp1799
F107.9737319946289
aF278.17791748046875
aaa(lp1800
(lp1801
F129.24513244628906
aF209.0994873046875
aaa(lp1802
(lp1803
F149.3265380859375
aF143.8557891845703
aaa(lp1804
(lp1805
F166.9805908203125
aF78.77178192138672
aaa(lp1806
(lp1807
F152.4447479248047
aF251.89761352539062
aaa(lp1808
(lp1809
F172.4739532470703
aF184.6349334716797
aaa(lp1810
(lp1811
F190.5780487060547
aF119.34130859375
aaa(lp1812
(lp1813
F205.81988525390625
aF51.249691009521484
aaa(lp1814
(lp1815
F176.19129943847656
aF296.0827331542969
aaa(lp1816
(lp1817
F196.11891174316406
aF226.45242309570312
aaa(lp1818
(lp1819
F214.31285095214844
aF160.09512329101562
aaa(lp1820
(lp1821
F230.6268310546875
aF92.71005249023438
aaa(lp1822
(lp1823
F220.3029022216797
aF269.6047058105469
aaa(lp1824
(lp1825
F238.46022033691406
aF201.49583435058594
aaa(lp1826
(lp1827
F255.2515106201172
aF134.1741943359375
aaa(lp1828
(lp1829
F271.4857177734375
aF64.75408172607422
aaa(lp1830
(lp1831
F245.12977600097656
aF314.0965881347656
aaa(lp1832
(lp1833
F263.1558532714844
aF243.86302185058594
aaa(lp1834
(lp1835
F280.20220947265625
aF176.02456665039062
aaa(lp1836
(lp1837
F296.9845275878906
aF106.93850708007812
aaa(lp1838
(lp1839
F288.399658203125
aF287.5095520019531
aaa(lp1840
(lp1841
F305.60791015625
aF218.48707580566406
aaa(lp1842
(lp1843
F322.7477111816406
aF149.49688720703125
aaa(lp1844
(lp1845
F340.3940734863281
aF78.58912658691406
aaa(lp1846
(lp1847
F314.360107421875
aF332.5078125
aaa(lp1848
(lp1849
F331.5444641113281
aF261.8076477050781
aaa(lp1850
(lp1851
F348.96575927734375
aF192.55287170410156
aaa(lp1852
(lp1853
F366.8774719238281
aF121.88165283203125
aaa(lp1854
(lp1855
F358.1258239746094
aF306.41253662109375
aaa(lp1856
(lp1857
F375.8077697753906
aF236.33583068847656
aaa(lp1858
(lp1859
F393.9041748046875
aF165.639892578125
aaa(lp1860
(lp1861
F413.0571594238281
aF93.05643463134766
aaa(lp1862
(lp1863
F385.54803466796875
aF352.4836120605469
aaa(lp1864
(lp1865
F403.50701904296875
aF281.1907958984375
aaa(lp1866
(lp1867
F421.8840026855469
aF210.0098419189453
aaa(lp1868
(lp1869
F440.8280029296875
aF137.45550537109375
aaaa.